; Function Attrs: nounwind uwtable
define internal fastcc noundef ptr @pysqlite_connection_set_progress_handler_impl(ptr noundef captures(none) %0, ptr noundef %1, ptr noundef %2, i32 noundef %3) unnamed_addr #0 {
  %5 = getelementptr inbounds nuw i8, ptr %0, i64 52
  %6 = load i32, ptr %5, align 4, !tbaa !21
  %.not.i = icmp eq i32 %6, 0
  br i1 %.not.i, label %15, label %7

7:                                                ; preds = %4
  %8 = tail call i64 @PyThread_get_thread_ident() #7
  %9 = getelementptr inbounds nuw i8, ptr %0, i64 64
  %10 = load i64, ptr %9, align 8, !tbaa !22
  %.not5.i = icmp eq i64 %8, %10
  br i1 %.not5.i, label %15, label %pysqlite_check_thread.exit

pysqlite_check_thread.exit:                       ; preds = %7
  %11 = getelementptr inbounds nuw i8, ptr %0, i64 208
  %12 = load ptr, ptr %11, align 8, !tbaa !23
  %13 = tail call i64 @PyThread_get_thread_ident() #7
  %14 = tail call ptr (ptr, ptr, ...) @PyErr_Format(ptr noundef %12, ptr noundef nonnull @.str.2, i64 noundef %10, i64 noundef %13) #7
  br label %set_callback_context.exit30

15:                                               ; preds = %7, %4
  %16 = getelementptr inbounds nuw i8, ptr %0, i64 56
  %17 = load i32, ptr %16, align 8, !tbaa !3
  %.not.i18 = icmp eq i32 %17, 0
  br i1 %.not.i18, label %18, label %22

18:                                               ; preds = %15
  %19 = getelementptr i8, ptr %0, i64 8
  %.val.i = load ptr, ptr %19, align 8, !tbaa !16
  %20 = tail call ptr @PyType_GetModuleByDef(ptr noundef %.val.i, ptr noundef nonnull @_sqlite3module) #7
  %21 = tail call ptr @PyModule_GetState(ptr noundef %20) #7
  br label %pysqlite_check_connection.exit.thread

22:                                               ; preds = %15
  %23 = getelementptr inbounds nuw i8, ptr %0, i64 16
  %24 = load ptr, ptr %23, align 8, !tbaa !17
  %.not5.i19 = icmp eq ptr %24, null
  br i1 %.not5.i19, label %25, label %pysqlite_check_connection.exit

25:                                               ; preds = %22
  %26 = getelementptr inbounds nuw i8, ptr %0, i64 24
  %27 = load ptr, ptr %26, align 8, !tbaa !18
  br label %pysqlite_check_connection.exit.thread

pysqlite_check_connection.exit.thread:            ; preds = %18, %25
  %.sink.i = phi ptr [ %27, %25 ], [ %21, %18 ]
  %.str.1.sink.i = phi ptr [ @.str.1, %25 ], [ @.str, %18 ]
  %28 = getelementptr inbounds nuw i8, ptr %.sink.i, i64 64
  %29 = load ptr, ptr %28, align 8, !tbaa !19
  tail call void @PyErr_SetString(ptr noundef %29, ptr noundef nonnull %.str.1.sink.i) #7
  br label %set_callback_context.exit30

pysqlite_check_connection.exit:                   ; preds = %22
  %30 = icmp eq ptr %2, @_Py_NoneStruct
  br i1 %30, label %31, label %50

31:                                               ; preds = %pysqlite_check_connection.exit
  tail call void @sqlite3_progress_handler(ptr noundef nonnull %24, i32 noundef 0, ptr noundef null, ptr noundef null) #7
  %32 = getelementptr inbounds nuw i8, ptr %0, i64 128
  %33 = load ptr, ptr %32, align 8, !tbaa !84
  store ptr null, ptr %32, align 8, !tbaa !84
  %.not.i21 = icmp eq ptr %33, null
  br i1 %.not.i21, label %set_callback_context.exit30, label %34

34:                                               ; preds = %31
  %35 = load ptr, ptr %33, align 8, !tbaa !77
  %.not.i.i.i = icmp eq ptr %35, null
  br i1 %.not.i.i.i, label %Py_XDECREF.exit.i.i, label %36

36:                                               ; preds = %34
  %37 = load i32, ptr %35, align 8, !tbaa !34
  %.not.i.i.i.i = icmp sgt i32 %37, -1
  br i1 %.not.i.i.i.i, label %38, label %Py_XDECREF.exit.i.i

38:                                               ; preds = %36
  %39 = add nsw i32 %37, -1
  store i32 %39, ptr %35, align 8, !tbaa !34
  %40 = icmp eq i32 %39, 0
  br i1 %40, label %41, label %Py_XDECREF.exit.i.i

41:                                               ; preds = %38
  tail call void @_Py_Dealloc(ptr noundef nonnull %35) #7
  br label %Py_XDECREF.exit.i.i

Py_XDECREF.exit.i.i:                              ; preds = %41, %38, %36, %34
  %42 = getelementptr inbounds nuw i8, ptr %33, i64 8
  %43 = load ptr, ptr %42, align 8, !tbaa !79
  %.not.i3.i.i = icmp eq ptr %43, null
  br i1 %.not.i3.i.i, label %free_callback_context.exit.i, label %44

44:                                               ; preds = %Py_XDECREF.exit.i.i
  %45 = load i32, ptr %43, align 8, !tbaa !34
  %.not.i.i4.i.i = icmp sgt i32 %45, -1
  br i1 %.not.i.i4.i.i, label %46, label %free_callback_context.exit.i

46:                                               ; preds = %44
  %47 = add nsw i32 %45, -1
  store i32 %47, ptr %43, align 8, !tbaa !34
  %48 = icmp eq i32 %47, 0
  br i1 %48, label %49, label %free_callback_context.exit.i

49:                                               ; preds = %46
  tail call void @_Py_Dealloc(ptr noundef nonnull %43) #7
  br label %free_callback_context.exit.i

free_callback_context.exit.i:                     ; preds = %49, %46, %44, %Py_XDECREF.exit.i.i
  tail call void @PyMem_Free(ptr noundef nonnull %33) #7
  br label %set_callback_context.exit30

50:                                               ; preds = %pysqlite_check_connection.exit
  %51 = tail call ptr @PyMem_Malloc(i64 noundef 24) #7
  %.not.i22 = icmp eq ptr %51, null
  br i1 %.not.i22, label %set_callback_context.exit30, label %52

52:                                               ; preds = %50
  %53 = tail call ptr @PyType_GetModule(ptr noundef %1) #7
  %54 = load i32, ptr %2, align 8, !tbaa !34
  %55 = icmp slt i32 %54, 0
  br i1 %55, label %_Py_NewRef.exit.i, label %56

56:                                               ; preds = %52
  %57 = add nuw i32 %54, 1
  store i32 %57, ptr %2, align 8, !tbaa !34
  br label %_Py_NewRef.exit.i

_Py_NewRef.exit.i:                                ; preds = %56, %52
  store ptr %2, ptr %51, align 8, !tbaa !77
  %58 = load i32, ptr %53, align 8, !tbaa !34
  %59 = icmp slt i32 %58, 0
  br i1 %59, label %62, label %60

60:                                               ; preds = %_Py_NewRef.exit.i
  %61 = add nuw i32 %58, 1
  store i32 %61, ptr %53, align 8, !tbaa !34
  br label %62

62:                                               ; preds = %60, %_Py_NewRef.exit.i
  %63 = getelementptr inbounds nuw i8, ptr %51, i64 8
  store ptr %53, ptr %63, align 8, !tbaa !79
  %64 = tail call ptr @PyModule_GetState(ptr noundef nonnull %53) #7
  %65 = getelementptr inbounds nuw i8, ptr %51, i64 16
  store ptr %64, ptr %65, align 8, !tbaa !87
  %66 = load ptr, ptr %23, align 8, !tbaa !17
  tail call void @sqlite3_progress_handler(ptr noundef %66, i32 noundef %3, ptr noundef nonnull @progress_callback, ptr noundef nonnull %51) #7
  %67 = getelementptr inbounds nuw i8, ptr %0, i64 128
  %68 = load ptr, ptr %67, align 8, !tbaa !84
  store ptr %51, ptr %67, align 8, !tbaa !84
  %.not.i23 = icmp eq ptr %68, null
  br i1 %.not.i23, label %set_callback_context.exit30, label %69

69:                                               ; preds = %62
  %70 = load ptr, ptr %68, align 8, !tbaa !77
  %.not.i.i.i24 = icmp eq ptr %70, null
  br i1 %.not.i.i.i24, label %Py_XDECREF.exit.i.i26, label %71

71:                                               ; preds = %69
  %72 = load i32, ptr %70, align 8, !tbaa !34
  %.not.i.i.i.i25 = icmp sgt i32 %72, -1
  br i1 %.not.i.i.i.i25, label %73, label %Py_XDECREF.exit.i.i26

73:                                               ; preds = %71
  %74 = add nsw i32 %72, -1
  store i32 %74, ptr %70, align 8, !tbaa !34
  %75 = icmp eq i32 %74, 0
  br i1 %75, label %76, label %Py_XDECREF.exit.i.i26

76:                                               ; preds = %73
  tail call void @_Py_Dealloc(ptr noundef nonnull %70) #7
  br label %Py_XDECREF.exit.i.i26

Py_XDECREF.exit.i.i26:                            ; preds = %76, %73, %71, %69
  %77 = getelementptr inbounds nuw i8, ptr %68, i64 8
  %78 = load ptr, ptr %77, align 8, !tbaa !79
  %.not.i3.i.i27 = icmp eq ptr %78, null
  br i1 %.not.i3.i.i27, label %free_callback_context.exit.i29, label %79

79:                                               ; preds = %Py_XDECREF.exit.i.i26
  %80 = load i32, ptr %78, align 8, !tbaa !34
  %.not.i.i4.i.i28 = icmp sgt i32 %80, -1
  br i1 %.not.i.i4.i.i28, label %81, label %free_callback_context.exit.i29

81:                                               ; preds = %79
  %82 = add nsw i32 %80, -1
  store i32 %82, ptr %78, align 8, !tbaa !34
  %83 = icmp eq i32 %82, 0
  br i1 %83, label %84, label %free_callback_context.exit.i29

84:                                               ; preds = %81
  tail call void @_Py_Dealloc(ptr noundef nonnull %78) #7
  br label %free_callback_context.exit.i29

free_callback_context.exit.i29:                   ; preds = %84, %81, %79, %Py_XDECREF.exit.i.i26
  tail call void @PyMem_Free(ptr noundef nonnull %68) #7
  br label %set_callback_context.exit30

set_callback_context.exit30:                      ; preds = %62, %free_callback_context.exit.i29, %31, %free_callback_context.exit.i, %50, %pysqlite_check_connection.exit.thread, %pysqlite_check_thread.exit
  %.014 = phi ptr [ null, %pysqlite_check_thread.exit ], [ null, %pysqlite_check_connection.exit.thread ], [ null, %50 ], [ @_Py_NoneStruct, %free_callback_context.exit.i ], [ @_Py_NoneStruct, %31 ], [ @_Py_NoneStruct, %free_callback_context.exit.i29 ], [ @_Py_NoneStruct, %62 ]
  ret ptr %.014
}